; Function Attrs: mustprogress nounwind uwtable
define internal void @_ZN9grpc_core12_GLOBAL__N_18RingHash6PickerD0Ev(ptr noundef nonnull align 8 dereferenceable(56) %this) unnamed_addr #4 align 2 personality ptr @__gxx_personality_v0 {
entry:
  store ptr getelementptr inbounds ({ [6 x ptr] }, ptr @_ZTVN9grpc_core12_GLOBAL__N_18RingHash6PickerE, i64 0, i32 0, i64 2), ptr %this, align 8
  %endpoints_.i = getelementptr inbounds i8, ptr %this, i64 32
  tail call fastcc void @_ZNSt6vectorIN9grpc_core12_GLOBAL__N_18RingHash16RingHashEndpoint12EndpointInfoESaIS4_EED2Ev(ptr noundef nonnull align 8 dereferenceable(24) %endpoints_.i) #23
  %ring_.i = getelementptr inbounds i8, ptr %this, i64 24
  %ring_.val.i = load ptr, ptr %ring_.i, align 8
  %cmp.not.i.i = icmp eq ptr %ring_.val.i, null
  br i1 %cmp.not.i.i, label %_ZN9grpc_core13RefCountedPtrINS_12_GLOBAL__N_18RingHash4RingEED2Ev.exit.i, label %if.then.i.i

if.then.i.i:                                      ; preds = %entry
  %refs_.i.i.i = getelementptr inbounds i8, ptr %ring_.val.i, i64 8
  %0 = atomicrmw sub ptr %refs_.i.i.i, i64 1 acq_rel, align 8
  %cmp.i.i.i.i = icmp eq i64 %0, 1
  br i1 %cmp.i.i.i.i, label %if.then.i.i.i, label %_ZN9grpc_core13RefCountedPtrINS_12_GLOBAL__N_18RingHash4RingEED2Ev.exit.i

if.then.i.i.i:                                    ; preds = %if.then.i.i
  %vtable.i.i.i.i = load ptr, ptr %ring_.val.i, align 8
  %vfn.i.i.i.i = getelementptr inbounds i8, ptr %vtable.i.i.i.i, i64 8
  %1 = load ptr, ptr %vfn.i.i.i.i, align 8
  tail call void %1(ptr noundef nonnull align 8 dereferenceable(40) %ring_.val.i) #23
  br label %_ZN9grpc_core13RefCountedPtrINS_12_GLOBAL__N_18RingHash4RingEED2Ev.exit.i

_ZN9grpc_core13RefCountedPtrINS_12_GLOBAL__N_18RingHash4RingEED2Ev.exit.i: ; preds = %if.then.i.i.i, %if.then.i.i, %entry
  %ring_hash_.i = getelementptr inbounds i8, ptr %this, i64 16
  %ring_hash_.val.i = load ptr, ptr %ring_hash_.i, align 8
  %cmp.not.i1.i = icmp eq ptr %ring_hash_.val.i, null
  br i1 %cmp.not.i1.i, label %_ZN9grpc_core12_GLOBAL__N_18RingHash6PickerD2Ev.exit, label %if.then.i2.i

if.then.i2.i:                                     ; preds = %_ZN9grpc_core13RefCountedPtrINS_12_GLOBAL__N_18RingHash4RingEED2Ev.exit.i
  %refs_.i.i3.i = getelementptr inbounds i8, ptr %ring_hash_.val.i, i64 8
  %2 = atomicrmw sub ptr %refs_.i.i3.i, i64 1 acq_rel, align 8
  %cmp.i.i.i4.i = icmp eq i64 %2, 1
  br i1 %cmp.i.i.i4.i, label %if.then.i.i5.i, label %_ZN9grpc_core12_GLOBAL__N_18RingHash6PickerD2Ev.exit

if.then.i.i5.i:                                   ; preds = %if.then.i2.i
  %vtable.i.i.i6.i = load ptr, ptr %ring_hash_.val.i, align 8
  %vfn.i.i.i7.i = getelementptr inbounds i8, ptr %vtable.i.i.i6.i, i64 16
  %3 = load ptr, ptr %vfn.i.i.i7.i, align 8
  tail call void %3(ptr noundef nonnull align 8 dereferenceable(56) %ring_hash_.val.i) #23
  br label %_ZN9grpc_core12_GLOBAL__N_18RingHash6PickerD2Ev.exit

_ZN9grpc_core12_GLOBAL__N_18RingHash6PickerD2Ev.exit: ; preds = %_ZN9grpc_core13RefCountedPtrINS_12_GLOBAL__N_18RingHash4RingEED2Ev.exit.i, %if.then.i2.i, %if.then.i.i5.i
  tail call void @_ZdlPv(ptr noundef nonnull %this) #25
  ret void
}